target datalayout = "e-m:e-p270:32:32-p271:32:32-p272:64:64-i64:64-i128:128-f80:128-n8:16:32:64-S128"
target triple = "x86_64-pc-linux-gnu"

%struct.MemoryRegion = type { %struct.Object, i8, i8, i8, i8, i8, i8, i8, i8, i8, i8, ptr, ptr, ptr, ptr, ptr, ptr, i32, i128, i64, ptr, i64, i8, i8, i8, i8, ptr, i64, i32, %union.anon, %union.anon.0, %union.anon.1, ptr, i32, ptr, ptr, i8 }
%struct.Object = type { ptr, ptr, ptr, i32, ptr }
%union.anon = type { %struct.QTailQLink }
%struct.QTailQLink = type { ptr, ptr }
%union.anon.0 = type { %struct.QTailQLink }
%union.anon.1 = type { %struct.QTailQLink }
%struct.VFIOPCIDevice = type { %struct.PCIDevice, %struct.VFIODevice, %struct.VFIOINTx, i32, ptr, i64, i32, i64, ptr, i32, ptr, ptr, i32, i32, [6 x %struct.VFIOBAR], ptr, ptr, %struct.PCIHostDeviceAddress, %struct.QemuUUID, %struct.EventNotifier, %struct.EventNotifier, ptr, i32, i32, i32, i32, i32, i32, i32, i32, i32, i32, i32, i8, i8, i8, i8, i8, i8, i8, i8, i8, i8, i8, i8, i8, i8, i32, i8, i8, i8, ptr, %struct.Notifier }
%struct.PCIDevice = type { %struct.DeviceState, i8, i8, ptr, ptr, ptr, ptr, ptr, i32, %struct.PCIReqIDCache, [64 x i8], [7 x %struct.PCIIORegion], %struct.AddressSpace, %struct.MemoryRegion, %struct.MemoryRegion, ptr, ptr, [3 x ptr], i8, i8, i32, i8, i32, ptr, ptr, ptr, ptr, ptr, ptr, %struct.MemoryRegion, %struct.MemoryRegion, %struct.MemoryRegion, ptr, i8, i32, i8, %struct.PCIExpressDevice, ptr, ptr, i32, i8, %struct.MemoryRegion, i32, ptr, ptr, ptr, ptr, i16, %struct.DOECap, ptr, i32, i32 }
%struct.DeviceState = type { %struct.Object, ptr, ptr, i8, i8, i64, i32, i8, ptr, %struct.NamedGPIOListHead, %struct.NamedClockListHead, %struct.BusStateHead, i32, i32, i32, %struct.ResettableState, ptr, %struct.MemReentrancyGuard }
%struct.NamedGPIOListHead = type { ptr }
%struct.NamedClockListHead = type { ptr }
%struct.BusStateHead = type { ptr }
%struct.ResettableState = type { i32, i8, i8 }
%struct.MemReentrancyGuard = type { i8 }
%struct.PCIReqIDCache = type { ptr, i32 }
%struct.PCIIORegion = type { i64, i64, i8, ptr, ptr }
%struct.AddressSpace = type { %struct.rcu_head, ptr, ptr, ptr, i32, i32, ptr, %union.anon.4, %union.anon.5, i64, i64, %struct.QemuMutex, %struct.anon.6 }
%struct.rcu_head = type { ptr, ptr }
%union.anon.4 = type { %struct.QTailQLink }
%union.anon.5 = type { %struct.QTailQLink }
%struct.QemuMutex = type { %union.pthread_mutex_t, i8 }
%union.pthread_mutex_t = type { %struct.__pthread_mutex_s }
%struct.__pthread_mutex_s = type { i32, i32, i32, i32, i32, i16, i16, %struct.__pthread_internal_list }
%struct.__pthread_internal_list = type { ptr, ptr }
%struct.anon.6 = type { ptr }
%struct.PCIExpressDevice = type { i8, i8, i8, i16, %struct.PCIEAERLog, i16, i16, i16, %struct.PCIESriovPF, %struct.PCIESriovVF }
%struct.PCIEAERLog = type { i16, i16, ptr }
%struct.PCIESriovPF = type { i16, [7 x i8], ptr, ptr }
%struct.PCIESriovVF = type { ptr, i16 }
%struct.DOECap = type { ptr, i16, %struct.anon.7, %struct.anon.8, %struct.anon.9, ptr, ptr, i32, i32, i32, ptr, i16, i32 }
%struct.anon.7 = type { i8, i16 }
%struct.anon.8 = type { i8, i8, i8 }
%struct.anon.9 = type { i8, i8, i8, i8 }
%struct.VFIODevice = type { %struct.anon.10, %struct.anon.11, %struct.anon.12, ptr, ptr, ptr, ptr, ptr, i32, i32, i8, i8, i8, i8, i8, i32, i8, ptr, i32, i32, i32, ptr, ptr, i32, i32, i8, i8, i8, ptr, i32, ptr, ptr, %struct.anon.13 }
%struct.anon.10 = type { ptr, ptr }
%struct.anon.11 = type { ptr, ptr }
%struct.anon.12 = type { ptr, ptr }
%struct.anon.13 = type { ptr, ptr }
%struct.VFIOINTx = type { i8, i8, i8, %struct.EventNotifier, %struct.EventNotifier, %struct.PCIINTxRoute, i32, ptr }
%struct.PCIINTxRoute = type { i32, i32 }
%struct.VFIOBAR = type { %struct.VFIORegion, ptr, i64, i8, i8, i8, %struct.anon.14 }
%struct.VFIORegion = type { ptr, i64, ptr, i64, i32, i32, ptr, i8 }
%struct.anon.14 = type { ptr }
%struct.PCIHostDeviceAddress = type { i32, i32, i32, i32 }
%struct.QemuUUID = type { %union.anon.15 }
%union.anon.15 = type { %struct.anon.16 }
%struct.anon.16 = type { i32, i16, i16, i8, i8, [6 x i8] }
%struct.EventNotifier = type { i32, i32, i8 }
%struct.Notifier = type { ptr, %struct.anon.17 }
%struct.anon.17 = type { ptr, ptr }
%struct.timeval = type { i64, i64 }
%union.anon.25 = type { i64 }

@trace_events_enabled_count = external global i32, align 4
@message_with_timestamp = external global i8, align 1
@qemu_loglevel = external global i32, align 4
@.str.174 = private unnamed_addr constant [39 x i8] c"vfio: unsupported read size, %d bytes\0A\00", align 1
@_TRACE_VFIO_ROM_READ_DSTATE = external global i16, align 2
@.str.182 = private unnamed_addr constant [55 x i8] c"%d@%zu.%06zu:vfio_rom_read  (%s, 0x%lx, 0x%x) = 0x%lx\0A\00", align 1
@.str.183 = private unnamed_addr constant [42 x i8] c"vfio_rom_read  (%s, 0x%lx, 0x%x) = 0x%lx\0A\00", align 1

; Function Attrs: inlinehint nounwind sspstrong uwtable
define internal zeroext i1 @qemu_loglevel_mask(i32 noundef %0) #3 {
  %2 = alloca i32, align 4
  store i32 %0, ptr %2, align 4
  %3 = load i32, ptr @qemu_loglevel, align 4
  %4 = load i32, ptr %2, align 4
  %5 = and i32 %3, %4
  %6 = icmp ne i32 %5, 0
  ret i1 %6
}

; Function Attrs: inlinehint nounwind sspstrong uwtable
define internal void @_nocheck__trace_vfio_rom_read(ptr noundef %0, i64 noundef %1, i32 noundef %2, i64 noundef %3) #3 {
  %5 = alloca ptr, align 8
  %6 = alloca i64, align 8
  %7 = alloca i32, align 4
  %8 = alloca i64, align 8
  %9 = alloca %struct.timeval, align 8
  store ptr %0, ptr %5, align 8
  store i64 %1, ptr %6, align 8
  store i32 %2, ptr %7, align 4
  store i64 %3, ptr %8, align 8
  %10 = load i32, ptr @trace_events_enabled_count, align 4
  %11 = icmp ne i32 %10, 0
  %12 = xor i1 %11, true
  %13 = xor i1 %12, true
  %14 = zext i1 %13 to i32
  %15 = sext i32 %14 to i64
  %16 = call i64 @llvm.expect.i64(i64 %15, i64 0)
  %17 = icmp ne i64 %16, 0
  br i1 %17, label %18, label %44

18:                                               ; preds = %4
  %19 = load i16, ptr @_TRACE_VFIO_ROM_READ_DSTATE, align 2
  %20 = zext i16 %19 to i32
  %21 = icmp ne i32 %20, 0
  br i1 %21, label %22, label %44

22:                                               ; preds = %18
  %23 = call zeroext i1 @qemu_loglevel_mask(i32 noundef 32768)
  br i1 %23, label %24, label %44

24:                                               ; preds = %22
  %25 = load i8, ptr @message_with_timestamp, align 1, !range !9, !noundef !10
  %26 = trunc i8 %25 to i1
  br i1 %26, label %27, label %38

27:                                               ; preds = %24
  call void @llvm.lifetime.start.p0(i64 16, ptr %9) #19
  call void @llvm.memset.p0.i64(ptr align 8 %9, i8 0, i64 16, i1 false), !annotation !4
  %28 = call i32 @gettimeofday(ptr noundef %9, ptr noundef null) #19
  %29 = call i32 @qemu_get_thread_id()
  %30 = getelementptr inbounds nuw %struct.timeval, ptr %9, i32 0, i32 0
  %31 = load i64, ptr %30, align 8
  %32 = getelementptr inbounds nuw %struct.timeval, ptr %9, i32 0, i32 1
  %33 = load i64, ptr %32, align 8
  %34 = load ptr, ptr %5, align 8
  %35 = load i64, ptr %6, align 8
  %36 = load i32, ptr %7, align 4
  %37 = load i64, ptr %8, align 8
  call void (ptr, ...) @qemu_log(ptr noundef @.str.182, i32 noundef %29, i64 noundef %31, i64 noundef %33, ptr noundef %34, i64 noundef %35, i32 noundef %36, i64 noundef %37)
  call void @llvm.lifetime.end.p0(i64 16, ptr %9) #19
  br label %43

38:                                               ; preds = %24
  %39 = load ptr, ptr %5, align 8
  %40 = load i64, ptr %6, align 8
  %41 = load i32, ptr %7, align 4
  %42 = load i64, ptr %8, align 8
  call void (ptr, ...) @qemu_log(ptr noundef @.str.183, ptr noundef %39, i64 noundef %40, i32 noundef %41, i64 noundef %42)
  br label %43

43:                                               ; preds = %38, %27
  br label %44

44:                                               ; preds = %43, %22, %18, %4
  ret void
}

; Function Attrs: inlinehint nounwind sspstrong uwtable
define internal void @trace_vfio_rom_read(ptr noundef %0, i64 noundef %1, i32 noundef %2, i64 noundef %3) #3 {
  %5 = alloca ptr, align 8
  %6 = alloca i64, align 8
  %7 = alloca i32, align 4
  %8 = alloca i64, align 8
  store ptr %0, ptr %5, align 8
  store i64 %1, ptr %6, align 8
  store i32 %2, ptr %7, align 4
  store i64 %3, ptr %8, align 8
  %9 = load ptr, ptr %5, align 8
  %10 = load i64, ptr %6, align 8
  %11 = load i32, ptr %7, align 4
  %12 = load i64, ptr %8, align 8
  call void @_nocheck__trace_vfio_rom_read(ptr noundef %9, i64 noundef %10, i32 noundef %11, i64 noundef %12)
  ret void
}

; Function Attrs: inlinehint nounwind sspstrong uwtable
define internal i32 @le32_to_cpu(i32 noundef %0) #3 {
  %2 = alloca i32, align 4
  store i32 %0, ptr %2, align 4
  %3 = load i32, ptr %2, align 4
  ret i32 %3
}

; Function Attrs: inlinehint nounwind sspstrong uwtable
define internal zeroext i16 @le16_to_cpu(i16 noundef zeroext %0) #3 {
  %2 = alloca i16, align 2
  store i16 %0, ptr %2, align 2
  %3 = load i16, ptr %2, align 2
  ret i16 %3
}

; Function Attrs: alwaysinline nounwind
define internal ptr @memcpy.inline(ptr noalias nonnull %0, ptr noalias nonnull %1, i64 %2) #6 {
  %4 = alloca ptr, align 8
  %5 = alloca ptr, align 8
  %6 = alloca i64, align 8
  store ptr %0, ptr %4, align 8
  store ptr %1, ptr %5, align 8
  store i64 %2, ptr %6, align 8
  %7 = load ptr, ptr %4, align 8
  %8 = load ptr, ptr %5, align 8
  %9 = load i64, ptr %6, align 8
  %10 = load ptr, ptr %4, align 8
  %11 = call i64 @llvm.objectsize.i64.p0(ptr %10, i1 false, i1 true, i1 false)
  %12 = call ptr @__memcpy_chk(ptr noundef %7, ptr noundef %8, i64 noundef %9, i64 noundef %11) #19
  ret ptr %12
}

; Function Attrs: nounwind sspstrong uwtable
define internal i64 @vfio_rom_read(ptr noundef %0, i64 noundef %1, i32 noundef %2) #0 {
  %4 = alloca ptr, align 8
  %5 = alloca i64, align 8
  %6 = alloca i32, align 4
  %7 = alloca ptr, align 8
  %8 = alloca %union.anon.25, align 8
  %9 = alloca i64, align 8
  %10 = alloca i64, align 8
  %11 = alloca i64, align 8
  %12 = alloca i64, align 8
  store ptr %0, ptr %4, align 8
  store i64 %1, ptr %5, align 8
  store i32 %2, ptr %6, align 4
  call void @llvm.lifetime.start.p0(i64 8, ptr %7) #19
  %13 = load ptr, ptr %4, align 8
  store ptr %13, ptr %7, align 8
  call void @llvm.lifetime.start.p0(i64 8, ptr %8) #19
  call void @llvm.memset.p0.i64(ptr align 8 %8, i8 0, i64 8, i1 false), !annotation !4
  call void @llvm.lifetime.start.p0(i64 8, ptr %9) #19
  store i64 0, ptr %9, align 8
  %14 = load ptr, ptr %7, align 8
  %15 = getelementptr inbounds nuw %struct.VFIOPCIDevice, ptr %14, i32 0, i32 8
  %16 = load ptr, ptr %15, align 16
  %17 = icmp ne ptr %16, null
  br i1 %17, label %24, label %18

18:                                               ; preds = %3
  %19 = load ptr, ptr %7, align 8
  %20 = getelementptr inbounds nuw %struct.VFIOPCIDevice, ptr %19, i32 0, i32 39
  %21 = load i8, ptr %20, align 2, !range !9, !noundef !10
  %22 = trunc i8 %21 to i1
  %23 = xor i1 %22, true
  br label %24

24:                                               ; preds = %18, %3
  %25 = phi i1 [ false, %3 ], [ %23, %18 ]
  %26 = xor i1 %25, true
  %27 = xor i1 %26, true
  %28 = zext i1 %27 to i32
  %29 = sext i32 %28 to i64
  %30 = call i64 @llvm.expect.i64(i64 %29, i64 0)
  %31 = icmp ne i64 %30, 0
  br i1 %31, label %32, label %34

32:                                               ; preds = %24
  %33 = load ptr, ptr %7, align 8
  call void @vfio_pci_load_rom(ptr noundef %33)
  br label %34

34:                                               ; preds = %32, %24
  %35 = load ptr, ptr %7, align 8
  %36 = getelementptr inbounds nuw %struct.VFIOPCIDevice, ptr %35, i32 0, i32 8
  %37 = load ptr, ptr %36, align 16
  %38 = load i64, ptr %5, align 8
  %39 = getelementptr inbounds nuw i8, ptr %37, i64 %38
  %40 = load i64, ptr %5, align 8
  %41 = load ptr, ptr %7, align 8
  %42 = getelementptr inbounds nuw %struct.VFIOPCIDevice, ptr %41, i32 0, i32 6
  %43 = load i32, ptr %42, align 16
  %44 = zext i32 %43 to i64
  %45 = icmp ult i64 %40, %44
  br i1 %45, label %46, label %65

46:                                               ; preds = %34
  call void @llvm.lifetime.start.p0(i64 8, ptr %10) #19
  %47 = load i32, ptr %6, align 4
  %48 = zext i32 %47 to i64
  store i64 %48, ptr %10, align 8
  call void @llvm.lifetime.start.p0(i64 8, ptr %11) #19
  %49 = load ptr, ptr %7, align 8
  %50 = getelementptr inbounds nuw %struct.VFIOPCIDevice, ptr %49, i32 0, i32 6
  %51 = load i32, ptr %50, align 16
  %52 = zext i32 %51 to i64
  %53 = load i64, ptr %5, align 8
  %54 = sub i64 %52, %53
  store i64 %54, ptr %11, align 8
  %55 = load i64, ptr %10, align 8
  %56 = load i64, ptr %11, align 8
  %57 = icmp ult i64 %55, %56
  br i1 %57, label %58, label %60

58:                                               ; preds = %46
  %59 = load i64, ptr %10, align 8
  br label %62

60:                                               ; preds = %46
  %61 = load i64, ptr %11, align 8
  br label %62

62:                                               ; preds = %60, %58
  %63 = phi i64 [ %59, %58 ], [ %61, %60 ]
  store i64 %63, ptr %12, align 8
  call void @llvm.lifetime.end.p0(i64 8, ptr %11) #19
  call void @llvm.lifetime.end.p0(i64 8, ptr %10) #19
  %64 = load i64, ptr %12, align 8
  br label %66

65:                                               ; preds = %34
  br label %66

66:                                               ; preds = %65, %62
  %67 = phi i64 [ %64, %62 ], [ 0, %65 ]
  %68 = call ptr @memcpy.inline(ptr noundef %8, ptr noundef %39, i64 noundef %67) #19
  %69 = load i32, ptr %6, align 4
  switch i32 %69, label %81 [
    i32 1, label %70
    i32 2, label %73
    i32 4, label %77
  ]

70:                                               ; preds = %66
  %71 = load i8, ptr %8, align 8
  %72 = zext i8 %71 to i64
  store i64 %72, ptr %9, align 8
  br label %83

73:                                               ; preds = %66
  %74 = load i16, ptr %8, align 8
  %75 = call zeroext i16 @le16_to_cpu(i16 noundef zeroext %74)
  %76 = zext i16 %75 to i64
  store i64 %76, ptr %9, align 8
  br label %83

77:                                               ; preds = %66
  %78 = load i32, ptr %8, align 8
  %79 = call i32 @le32_to_cpu(i32 noundef %78)
  %80 = zext i32 %79 to i64
  store i64 %80, ptr %9, align 8
  br label %83

81:                                               ; preds = %66
  %82 = load i32, ptr %6, align 4
  call void (ptr, ...) @hw_error(ptr noundef @.str.174, i32 noundef %82) #20
  unreachable

83:                                               ; preds = %77, %73, %70
  %84 = load ptr, ptr %7, align 8
  %85 = getelementptr inbounds nuw %struct.VFIOPCIDevice, ptr %84, i32 0, i32 1
  %86 = getelementptr inbounds nuw %struct.VFIODevice, ptr %85, i32 0, i32 6
  %87 = load ptr, ptr %86, align 8
  %88 = load i64, ptr %5, align 8
  %89 = load i32, ptr %6, align 4
  %90 = load i64, ptr %9, align 8
  call void @trace_vfio_rom_read(ptr noundef %87, i64 noundef %88, i32 noundef %89, i64 noundef %90)
  %91 = load i64, ptr %9, align 8
  call void @llvm.lifetime.end.p0(i64 8, ptr %9) #19
  call void @llvm.lifetime.end.p0(i64 8, ptr %8) #19
  call void @llvm.lifetime.end.p0(i64 8, ptr %7) #19
  ret i64 %91
}