; Function Attrs: nounwind sspstrong uwtable
define internal range(i64 0, 4294967296) i64 @vfio_rom_read(ptr noundef %0, i64 noundef %1, i32 noundef %2) #0 {
  %4 = alloca %struct.timeval, align 8
  %5 = alloca %union.anon.25, align 8
  call void @llvm.lifetime.start.p0(i64 8, ptr nonnull %5) #26
  %6 = getelementptr inbounds nuw i8, ptr %0, i64 3056
  %7 = load ptr, ptr %6, align 16
  %.not = icmp eq ptr %7, null
  br i1 %.not, label %8, label %.critedge

8:                                                ; preds = %3
  %9 = getelementptr inbounds nuw i8, ptr %0, i64 3754
  %10 = load i8, ptr %9, align 2, !range !6, !noundef !7
  %11 = trunc nuw i8 %10 to i1
  %12 = xor i1 %11, true
  tail call void @llvm.assume(i1 %12)
  tail call fastcc void @vfio_pci_load_rom(ptr noundef nonnull %0)
  %.pre = load ptr, ptr %6, align 16
  br label %.critedge

.critedge:                                        ; preds = %3, %8
  %13 = phi ptr [ %7, %3 ], [ %.pre, %8 ]
  store i64 0, ptr %5, align 8, !annotation !4
  %14 = getelementptr inbounds nuw i8, ptr %13, i64 %1
  %15 = getelementptr inbounds nuw i8, ptr %0, i64 3040
  %16 = load i32, ptr %15, align 16
  %17 = zext i32 %16 to i64
  %18 = icmp ult i64 %1, %17
  %19 = zext i32 %2 to i64
  %20 = sub nuw nsw i64 %17, %1
  %21 = tail call i64 @llvm.umin.i64(i64 %20, i64 %19)
  %22 = select i1 %18, i64 %21, i64 0
  %23 = call ptr @__memcpy_chk(ptr noundef nonnull %5, ptr noundef nonnull %14, i64 noundef range(i64 -4294967294, 4294967296) %22, i64 noundef 8) #26, !alias.scope !38
  switch i32 %2, label %33 [
    i32 1, label %24
    i32 2, label %27
    i32 4, label %30
  ]

24:                                               ; preds = %.critedge
  %25 = load i8, ptr %5, align 8
  %26 = zext i8 %25 to i64
  br label %34

27:                                               ; preds = %.critedge
  %28 = load i16, ptr %5, align 8
  %29 = zext i16 %28 to i64
  br label %34

30:                                               ; preds = %.critedge
  %31 = load i32, ptr %5, align 8
  %32 = zext i32 %31 to i64
  br label %34

33:                                               ; preds = %.critedge
  call void (ptr, ...) @hw_error(ptr noundef nonnull @.str.174, i32 noundef %2) #27
  unreachable

34:                                               ; preds = %30, %27, %24
  %.0 = phi i64 [ %32, %30 ], [ %29, %27 ], [ %26, %24 ]
  %35 = getelementptr inbounds nuw i8, ptr %0, i64 2824
  %36 = load ptr, ptr %35, align 8
  %37 = load i32, ptr @trace_events_enabled_count, align 4
  %.not.i.i = icmp eq i32 %37, 0
  br i1 %.not.i.i, label %trace_vfio_rom_read.exit, label %38, !prof !5

38:                                               ; preds = %34
  %39 = load i16, ptr @_TRACE_VFIO_ROM_READ_DSTATE, align 2
  %.not7.i.i = icmp eq i16 %39, 0
  br i1 %.not7.i.i, label %trace_vfio_rom_read.exit, label %40

40:                                               ; preds = %38
  %41 = load i32, ptr @qemu_loglevel, align 4
  %42 = and i32 %41, 32768
  %.not8.i.i = icmp eq i32 %42, 0
  br i1 %.not8.i.i, label %trace_vfio_rom_read.exit, label %43

43:                                               ; preds = %40
  %44 = load i8, ptr @message_with_timestamp, align 1, !range !6, !noundef !7
  %45 = trunc nuw i8 %44 to i1
  br i1 %45, label %46, label %52

46:                                               ; preds = %43
  call void @llvm.lifetime.start.p0(i64 16, ptr nonnull %4) #26
  call void @llvm.memset.p0.i64(ptr noundef nonnull align 8 dereferenceable(16) %4, i8 0, i64 16, i1 false), !annotation !4
  %47 = call i32 @gettimeofday(ptr noundef nonnull %4, ptr noundef null) #26
  %48 = call i32 @qemu_get_thread_id() #26
  %49 = load i64, ptr %4, align 8
  %50 = getelementptr inbounds nuw i8, ptr %4, i64 8
  %51 = load i64, ptr %50, align 8
  call void (ptr, ...) @qemu_log(ptr noundef nonnull @.str.182, i32 noundef %48, i64 noundef %49, i64 noundef %51, ptr noundef %36, i64 noundef %1, i32 noundef %2, i64 noundef range(i64 0, 4294967296) %.0) #26
  call void @llvm.lifetime.end.p0(i64 16, ptr nonnull %4) #26
  br label %trace_vfio_rom_read.exit

52:                                               ; preds = %43
  call void (ptr, ...) @qemu_log(ptr noundef nonnull @.str.183, ptr noundef %36, i64 noundef %1, i32 noundef %2, i64 noundef range(i64 0, 4294967296) %.0) #26
  br label %trace_vfio_rom_read.exit

trace_vfio_rom_read.exit:                         ; preds = %34, %38, %40, %46, %52
  call void @llvm.lifetime.end.p0(i64 8, ptr nonnull %5) #26
  ret i64 %.0
}